target datalayout = "e-m:e-p270:32:32-p271:32:32-p272:64:64-i64:64-i128:128-f80:128-n8:16:32:64-S128"
target triple = "x86_64-pc-linux-gnu"

%struct.Abc_Obj_t_ = type { ptr, ptr, i32, i32, %struct.Vec_Int_t_, %struct.Vec_Int_t_, %union.anon, %union.anon.0 }
%struct.Vec_Int_t_ = type { i32, i32, ptr }
%union.anon = type { ptr }
%union.anon.0 = type { ptr }
%struct.Vec_Ptr_t_ = type { i32, i32, ptr }
%struct.Abc_Ntk_t_ = type { i32, i32, ptr, ptr, ptr, ptr, ptr, ptr, ptr, ptr, ptr, ptr, ptr, [11 x i32], i32, i32, i32, i32, ptr, i32, ptr, ptr, i32, i32, i32, double, i32, %struct.Vec_Int_t_, ptr, ptr, ptr, ptr, ptr, float, i32, ptr, ptr, ptr, ptr, ptr, ptr, ptr, ptr, ptr, ptr, ptr, ptr, ptr, ptr, ptr, ptr, ptr, ptr, ptr, ptr, ptr, ptr }
%struct.DdManager = type { %struct.DdNode, ptr, ptr, ptr, ptr, ptr, ptr, ptr, i32, i32, double, double, double, i32, i32, i32, i32, i32, i32, ptr, ptr, %struct.DdSubtable, i32, i32, i32, i32, i32, i32, i32, double, i32, i32, i32, ptr, i64, double, i32, ptr, ptr, ptr, ptr, ptr, ptr, ptr, i32, ptr, ptr, ptr, ptr, ptr, ptr, i32, i32, i32, double, i32, i32, i32, i32, double, double, i32, i32, i32, i32, i32, i32, i32, i32, i32, ptr, ptr, i32, i32, i32, i32, i32, i32, ptr, ptr, ptr, ptr, ptr, ptr, ptr, ptr, i32, i64, i64, i64, i32, i64, i64, double, double, double, double, double, double, i32, ptr, ptr, i64 }
%struct.DdNode = type { i32, i32, ptr, %union.anon.1, i64 }
%union.anon.1 = type { %struct.DdChildren }
%struct.DdChildren = type { ptr, ptr }
%struct.DdSubtable = type { ptr, i32, i32, i32, i32, i32, i32, i32, i32, i32, i32, i32 }

; Function Attrs: inlinehint nounwind uwtable
define internal ptr @Vec_PtrEntry(ptr noundef %0, i32 noundef %1) #2 {
  %3 = alloca ptr, align 8
  %4 = alloca i32, align 4
  store ptr %0, ptr %3, align 8, !tbaa !13
  store i32 %1, ptr %4, align 4, !tbaa !11
  %5 = load ptr, ptr %3, align 8, !tbaa !13
  %6 = getelementptr inbounds nuw %struct.Vec_Ptr_t_, ptr %5, i32 0, i32 2
  %7 = load ptr, ptr %6, align 8, !tbaa !20
  %8 = load i32, ptr %4, align 4, !tbaa !11
  %9 = sext i32 %8 to i64
  %10 = getelementptr inbounds ptr, ptr %7, i64 %9
  %11 = load ptr, ptr %10, align 8, !tbaa !21
  ret ptr %11
}

; Function Attrs: inlinehint nounwind uwtable
define internal i32 @Vec_PtrSize(ptr noundef %0) #2 {
  %2 = alloca ptr, align 8
  store ptr %0, ptr %2, align 8, !tbaa !13
  %3 = load ptr, ptr %2, align 8, !tbaa !13
  %4 = getelementptr inbounds nuw %struct.Vec_Ptr_t_, ptr %3, i32 0, i32 1
  %5 = load i32, ptr %4, align 4, !tbaa !15
  ret i32 %5
}

; Function Attrs: inlinehint nounwind uwtable
define internal ptr @Abc_NtkCi(ptr noundef %0, i32 noundef %1) #2 {
  %3 = alloca ptr, align 8
  %4 = alloca i32, align 4
  store ptr %0, ptr %3, align 8, !tbaa !52
  store i32 %1, ptr %4, align 4, !tbaa !11
  %5 = load ptr, ptr %3, align 8, !tbaa !52
  %6 = getelementptr inbounds nuw %struct.Abc_Ntk_t_, ptr %5, i32 0, i32 8
  %7 = load ptr, ptr %6, align 8, !tbaa !75
  %8 = load i32, ptr %4, align 4, !tbaa !11
  %9 = call ptr @Vec_PtrEntry(ptr noundef %7, i32 noundef %8)
  ret ptr %9
}

; Function Attrs: inlinehint nounwind uwtable
define internal i32 @Abc_NtkCiNum(ptr noundef %0) #2 {
  %2 = alloca ptr, align 8
  store ptr %0, ptr %2, align 8, !tbaa !52
  %3 = load ptr, ptr %2, align 8, !tbaa !52
  %4 = getelementptr inbounds nuw %struct.Abc_Ntk_t_, ptr %3, i32 0, i32 8
  %5 = load ptr, ptr %4, align 8, !tbaa !75
  %6 = call i32 @Vec_PtrSize(ptr noundef %5)
  ret i32 %6
}

; Function Attrs: inlinehint nounwind uwtable
define internal ptr @Abc_NtkCreateNode(ptr noundef %0) #2 {
  %2 = alloca ptr, align 8
  store ptr %0, ptr %2, align 8, !tbaa !52
  %3 = load ptr, ptr %2, align 8, !tbaa !52
  %4 = call ptr @Abc_NtkCreateObj(ptr noundef %3, i32 noundef 7)
  ret ptr %4
}

; Function Attrs: nounwind uwtable
define ptr @Abc_NodeFromGlobalBdds(ptr noundef %0, ptr noundef %1, ptr noundef %2, i32 noundef %3) #0 {
  %5 = alloca ptr, align 8
  %6 = alloca ptr, align 8
  %7 = alloca ptr, align 8
  %8 = alloca i32, align 4
  %9 = alloca ptr, align 8
  %10 = alloca ptr, align 8
  %11 = alloca i32, align 4
  store ptr %0, ptr %5, align 8, !tbaa !52
  store ptr %1, ptr %6, align 8, !tbaa !59
  store ptr %2, ptr %7, align 8, !tbaa !41
  store i32 %3, ptr %8, align 4, !tbaa !11
  call void @llvm.lifetime.start.p0(i64 8, ptr %9) #11
  call void @llvm.lifetime.start.p0(i64 8, ptr %10) #11
  call void @llvm.lifetime.start.p0(i64 4, ptr %11) #11
  %12 = load ptr, ptr %5, align 8, !tbaa !52
  %13 = call ptr @Abc_NtkCreateNode(ptr noundef %12)
  store ptr %13, ptr %9, align 8, !tbaa !3
  store i32 0, ptr %11, align 4, !tbaa !11
  br label %14

14:                                               ; preds = %53, %4
  %15 = load i32, ptr %11, align 4, !tbaa !11
  %16 = load ptr, ptr %5, align 8, !tbaa !52
  %17 = call i32 @Abc_NtkCiNum(ptr noundef %16)
  %18 = icmp slt i32 %15, %17
  br i1 %18, label %19, label %23

19:                                               ; preds = %14
  %20 = load ptr, ptr %5, align 8, !tbaa !52
  %21 = load i32, ptr %11, align 4, !tbaa !11
  %22 = call ptr @Abc_NtkCi(ptr noundef %20, i32 noundef %21)
  store ptr %22, ptr %10, align 8, !tbaa !3
  br label %23

23:                                               ; preds = %19, %14
  %24 = phi i1 [ false, %14 ], [ true, %19 ]
  br i1 %24, label %25, label %56

25:                                               ; preds = %23
  %26 = load ptr, ptr %9, align 8, !tbaa !3
  %27 = load ptr, ptr %5, align 8, !tbaa !52
  %28 = load i32, ptr %8, align 4, !tbaa !11
  %29 = icmp ne i32 %28, 0
  br i1 %29, label %30, label %42

30:                                               ; preds = %25
  %31 = load ptr, ptr %5, align 8, !tbaa !52
  %32 = call i32 @Abc_NtkCiNum(ptr noundef %31)
  %33 = sub nsw i32 %32, 1
  %34 = load ptr, ptr %6, align 8, !tbaa !59
  %35 = getelementptr inbounds nuw %struct.DdManager, ptr %34, i32 0, i32 39
  %36 = load ptr, ptr %35, align 8, !tbaa !61
  %37 = load i32, ptr %11, align 4, !tbaa !11
  %38 = sext i32 %37 to i64
  %39 = getelementptr inbounds i32, ptr %36, i64 %38
  %40 = load i32, ptr %39, align 4, !tbaa !11
  %41 = sub nsw i32 %33, %40
  br label %50

42:                                               ; preds = %25
  %43 = load ptr, ptr %6, align 8, !tbaa !59
  %44 = getelementptr inbounds nuw %struct.DdManager, ptr %43, i32 0, i32 39
  %45 = load ptr, ptr %44, align 8, !tbaa !61
  %46 = load i32, ptr %11, align 4, !tbaa !11
  %47 = sext i32 %46 to i64
  %48 = getelementptr inbounds i32, ptr %45, i64 %47
  %49 = load i32, ptr %48, align 4, !tbaa !11
  br label %50

50:                                               ; preds = %42, %30
  %51 = phi i32 [ %41, %30 ], [ %49, %42 ]
  %52 = call ptr @Abc_NtkCi(ptr noundef %27, i32 noundef %51)
  call void @Abc_ObjAddFanin(ptr noundef %26, ptr noundef %52)
  br label %53

53:                                               ; preds = %50
  %54 = load i32, ptr %11, align 4, !tbaa !11
  %55 = add nsw i32 %54, 1
  store i32 %55, ptr %11, align 4, !tbaa !11
  br label %14, !llvm.loop !74

56:                                               ; preds = %23
  %57 = load ptr, ptr %6, align 8, !tbaa !59
  %58 = load ptr, ptr %5, align 8, !tbaa !52
  %59 = getelementptr inbounds nuw %struct.Abc_Ntk_t_, ptr %58, i32 0, i32 30
  %60 = load ptr, ptr %59, align 8, !tbaa !29
  %61 = load ptr, ptr %7, align 8, !tbaa !41
  %62 = call ptr @Extra_TransferLevelByLevel(ptr noundef %57, ptr noundef %60, ptr noundef %61)
  %63 = load ptr, ptr %9, align 8, !tbaa !3
  %64 = getelementptr inbounds nuw %struct.Abc_Obj_t_, ptr %63, i32 0, i32 6
  store ptr %62, ptr %64, align 8, !tbaa !10
  %65 = load ptr, ptr %9, align 8, !tbaa !3
  %66 = getelementptr inbounds nuw %struct.Abc_Obj_t_, ptr %65, i32 0, i32 6
  %67 = load ptr, ptr %66, align 8, !tbaa !10
  call void @Cudd_Ref(ptr noundef %67)
  %68 = load ptr, ptr %9, align 8, !tbaa !3
  call void @llvm.lifetime.end.p0(i64 4, ptr %11) #11
  call void @llvm.lifetime.end.p0(i64 8, ptr %10) #11
  call void @llvm.lifetime.end.p0(i64 8, ptr %9) #11
  ret ptr %68
}