; Function Attrs: nounwind uwtable
define ptr @Abc_NodeFromGlobalBdds(ptr noundef %0, ptr noundef %1, ptr noundef %2, i32 noundef %3) local_unnamed_addr #0 {
  %5 = tail call ptr @Abc_NtkCreateObj(ptr noundef %0, i32 noundef 7) #18
  %6 = getelementptr i8, ptr %0, i64 56
  %.val22 = load ptr, ptr %6, align 8, !tbaa !51
  %7 = getelementptr i8, ptr %.val22, i64 4
  %.val.val23 = load i32, ptr %7, align 4, !tbaa !19
  %8 = icmp sgt i32 %.val.val23, 0
  br i1 %8, label %.lr.ph, label %.critedge

.lr.ph:                                           ; preds = %4
  %.not = icmp eq i32 %3, 0
  %9 = getelementptr inbounds nuw i8, ptr %1, i64 328
  br i1 %.not, label %.lr.ph.split.us, label %.lr.ph.split

.lr.ph.split.us:                                  ; preds = %.lr.ph, %.lr.ph.split.us
  %indvars.iv29 = phi i64 [ %indvars.iv.next30, %.lr.ph.split.us ], [ 0, %.lr.ph ]
  %.val25.us = phi ptr [ %.val.us, %.lr.ph.split.us ], [ %.val22, %.lr.ph ]
  %10 = getelementptr i8, ptr %.val25.us, i64 8
  %.val20.val.us = load ptr, ptr %10, align 8, !tbaa !22
  %11 = load ptr, ptr %9, align 8, !tbaa !52
  %12 = getelementptr inbounds nuw i32, ptr %11, i64 %indvars.iv29
  %13 = load i32, ptr %12, align 4, !tbaa !28
  %14 = sext i32 %13 to i64
  %15 = getelementptr inbounds ptr, ptr %.val20.val.us, i64 %14
  %16 = load ptr, ptr %15, align 8, !tbaa !24
  tail call void @Abc_ObjAddFanin(ptr noundef %5, ptr noundef %16) #18
  %indvars.iv.next30 = add nuw nsw i64 %indvars.iv29, 1
  %.val.us = load ptr, ptr %6, align 8, !tbaa !51
  %17 = getelementptr i8, ptr %.val.us, i64 4
  %.val.val.us = load i32, ptr %17, align 4, !tbaa !19
  %18 = sext i32 %.val.val.us to i64
  %19 = icmp slt i64 %indvars.iv.next30, %18
  br i1 %19, label %.lr.ph.split.us, label %.critedge, !llvm.loop !66

.lr.ph.split:                                     ; preds = %.lr.ph, %.lr.ph.split
  %indvars.iv = phi i64 [ %indvars.iv.next, %.lr.ph.split ], [ 0, %.lr.ph ]
  %.val.val26 = phi i32 [ %.val.val, %.lr.ph.split ], [ %.val.val23, %.lr.ph ]
  %.val25 = phi ptr [ %.val, %.lr.ph.split ], [ %.val22, %.lr.ph ]
  %20 = getelementptr i8, ptr %.val25, i64 8
  %.val20.val = load ptr, ptr %20, align 8, !tbaa !22
  %21 = load ptr, ptr %9, align 8, !tbaa !52
  %22 = getelementptr inbounds nuw i32, ptr %21, i64 %indvars.iv
  %23 = load i32, ptr %22, align 4, !tbaa !28
  %24 = xor i32 %23, -1
  %25 = add i32 %.val.val26, %24
  %26 = sext i32 %25 to i64
  %27 = getelementptr inbounds ptr, ptr %.val20.val, i64 %26
  %28 = load ptr, ptr %27, align 8, !tbaa !24
  tail call void @Abc_ObjAddFanin(ptr noundef %5, ptr noundef %28) #18
  %indvars.iv.next = add nuw nsw i64 %indvars.iv, 1
  %.val = load ptr, ptr %6, align 8, !tbaa !51
  %29 = getelementptr i8, ptr %.val, i64 4
  %.val.val = load i32, ptr %29, align 4, !tbaa !19
  %30 = sext i32 %.val.val to i64
  %31 = icmp slt i64 %indvars.iv.next, %30
  br i1 %31, label %.lr.ph.split, label %.critedge, !llvm.loop !66

.critedge:                                        ; preds = %.lr.ph.split, %.lr.ph.split.us, %4
  %32 = getelementptr inbounds nuw i8, ptr %0, i64 256
  %33 = load ptr, ptr %32, align 8, !tbaa !32
  %34 = tail call ptr @Extra_TransferLevelByLevel(ptr noundef %1, ptr noundef %33, ptr noundef %2) #18
  %35 = getelementptr inbounds nuw i8, ptr %5, i64 56
  store ptr %34, ptr %35, align 8, !tbaa !12
  tail call void @Cudd_Ref(ptr noundef %34) #18
  ret ptr %5
}